; Function Attrs: mustprogress uwtable
define hidden void @_ZN3sat8aig_cuts8set_rootEjNS_7literalE(ptr noundef nonnull align 8 dereferenceable(480) %this, i32 noundef %v, i32 %r.coerce) local_unnamed_addr #3 align 2 {
entry:
  %call = tail call noundef i32 @_Z19get_verbosity_levelv()
  %cmp = icmp ugt i32 %call, 9
  br i1 %cmp, label %if.then, label %if.end19

if.then:                                          ; preds = %entry
  %call2 = tail call noundef zeroext i1 @_Z11is_threadedv()
  br i1 %call2, label %if.then3, label %if.else

if.then3:                                         ; preds = %if.then
  tail call void @_Z12verbose_lockv()
  %call4 = tail call noundef nonnull align 8 dereferenceable(8) ptr @_Z14verbose_streamv()
  %call5 = tail call noundef nonnull align 8 dereferenceable(8) ptr @_ZStlsISt11char_traitsIcEERSt13basic_ostreamIcT_ES5_PKc(ptr noundef nonnull align 8 dereferenceable(8) %call4, ptr noundef nonnull @.str.23)
  %call6 = tail call noundef nonnull align 8 dereferenceable(8) ptr @_ZNSolsEj(ptr noundef nonnull align 8 dereferenceable(8) %call5, i32 noundef %v)
  %call7 = tail call noundef nonnull align 8 dereferenceable(8) ptr @_ZStlsISt11char_traitsIcEERSt13basic_ostreamIcT_ES5_PKc(ptr noundef nonnull align 8 dereferenceable(8) %call6, ptr noundef nonnull @.str.24)
  %.b16 = load i1, ptr @_ZN3satL12null_literalE.0, align 4
  %0 = select i1 %.b16, i32 -2, i32 0
  %cmp.i.i = icmp eq i32 %0, %r.coerce
  br i1 %cmp.i.i, label %if.then.i, label %if.else.i

if.then.i:                                        ; preds = %if.then3
  %call1.i = tail call noundef nonnull align 8 dereferenceable(8) ptr @_ZStlsISt11char_traitsIcEERSt13basic_ostreamIcT_ES5_PKc(ptr noundef nonnull align 8 dereferenceable(8) %call7, ptr noundef nonnull @.str.39)
  br label %_ZN3satlsERSoNS_7literalE.exit

if.else.i:                                        ; preds = %if.then3
  %1 = and i32 %r.coerce, 1
  %tobool.i.not.i = icmp eq i32 %1, 0
  %cond.i = select i1 %tobool.i.not.i, ptr @.str.41, ptr @.str.40
  %call3.i = tail call noundef nonnull align 8 dereferenceable(8) ptr @_ZStlsISt11char_traitsIcEERSt13basic_ostreamIcT_ES5_PKc(ptr noundef nonnull align 8 dereferenceable(8) %call7, ptr noundef nonnull %cond.i)
  %shr.i.i = lshr i32 %r.coerce, 1
  %call5.i = tail call noundef nonnull align 8 dereferenceable(8) ptr @_ZNSolsEj(ptr noundef nonnull align 8 dereferenceable(8) %call3.i, i32 noundef %shr.i.i)
  br label %_ZN3satlsERSoNS_7literalE.exit

_ZN3satlsERSoNS_7literalE.exit:                   ; preds = %if.then.i, %if.else.i
  %call10 = tail call noundef nonnull align 8 dereferenceable(8) ptr @_ZStlsISt11char_traitsIcEERSt13basic_ostreamIcT_ES5_PKc(ptr noundef nonnull align 8 dereferenceable(8) %call7, ptr noundef nonnull @.str.6)
  tail call void @_Z14verbose_unlockv()
  br label %if.end19

if.else:                                          ; preds = %if.then
  %call11 = tail call noundef nonnull align 8 dereferenceable(8) ptr @_Z14verbose_streamv()
  %call12 = tail call noundef nonnull align 8 dereferenceable(8) ptr @_ZStlsISt11char_traitsIcEERSt13basic_ostreamIcT_ES5_PKc(ptr noundef nonnull align 8 dereferenceable(8) %call11, ptr noundef nonnull @.str.23)
  %call13 = tail call noundef nonnull align 8 dereferenceable(8) ptr @_ZNSolsEj(ptr noundef nonnull align 8 dereferenceable(8) %call12, i32 noundef %v)
  %call14 = tail call noundef nonnull align 8 dereferenceable(8) ptr @_ZStlsISt11char_traitsIcEERSt13basic_ostreamIcT_ES5_PKc(ptr noundef nonnull align 8 dereferenceable(8) %call13, ptr noundef nonnull @.str.24)
  %.b = load i1, ptr @_ZN3satL12null_literalE.0, align 4
  %2 = select i1 %.b, i32 -2, i32 0
  %cmp.i.i1 = icmp eq i32 %2, %r.coerce
  br i1 %cmp.i.i1, label %if.then.i8, label %if.else.i2

if.then.i8:                                       ; preds = %if.else
  %call1.i9 = tail call noundef nonnull align 8 dereferenceable(8) ptr @_ZStlsISt11char_traitsIcEERSt13basic_ostreamIcT_ES5_PKc(ptr noundef nonnull align 8 dereferenceable(8) %call14, ptr noundef nonnull @.str.39)
  br label %_ZN3satlsERSoNS_7literalE.exit10

if.else.i2:                                       ; preds = %if.else
  %3 = and i32 %r.coerce, 1
  %tobool.i.not.i3 = icmp eq i32 %3, 0
  %cond.i4 = select i1 %tobool.i.not.i3, ptr @.str.41, ptr @.str.40
  %call3.i5 = tail call noundef nonnull align 8 dereferenceable(8) ptr @_ZStlsISt11char_traitsIcEERSt13basic_ostreamIcT_ES5_PKc(ptr noundef nonnull align 8 dereferenceable(8) %call14, ptr noundef nonnull %cond.i4)
  %shr.i.i6 = lshr i32 %r.coerce, 1
  %call5.i7 = tail call noundef nonnull align 8 dereferenceable(8) ptr @_ZNSolsEj(ptr noundef nonnull align 8 dereferenceable(8) %call3.i5, i32 noundef %shr.i.i6)
  br label %_ZN3satlsERSoNS_7literalE.exit10

_ZN3satlsERSoNS_7literalE.exit10:                 ; preds = %if.then.i8, %if.else.i2
  %call18 = tail call noundef nonnull align 8 dereferenceable(8) ptr @_ZStlsISt11char_traitsIcEERSt13basic_ostreamIcT_ES5_PKc(ptr noundef nonnull align 8 dereferenceable(8) %call14, ptr noundef nonnull @.str.6)
  br label %if.end19

if.end19:                                         ; preds = %_ZN3satlsERSoNS_7literalE.exit, %_ZN3satlsERSoNS_7literalE.exit10, %entry
  %m_roots = getelementptr inbounds i8, ptr %this, i64 208
  %4 = load ptr, ptr %m_roots, align 8
  %cmp.i = icmp eq ptr %4, null
  br i1 %cmp.i, label %if.then.i11, label %lor.lhs.false.i

lor.lhs.false.i:                                  ; preds = %if.end19
  %arrayidx.i = getelementptr inbounds i8, ptr %4, i64 -4
  %5 = load i32, ptr %arrayidx.i, align 4
  %arrayidx4.i = getelementptr inbounds i8, ptr %4, i64 -8
  %6 = load i32, ptr %arrayidx4.i, align 4
  %cmp5.i = icmp eq i32 %5, %6
  br i1 %cmp5.i, label %if.then.i11, label %_ZN6vectorISt4pairIjN3sat7literalEELb0EjE9push_backEOS3_.exit

if.then.i11:                                      ; preds = %lor.lhs.false.i, %if.end19
  tail call void @_ZN6vectorISt4pairIjN3sat7literalEELb0EjE13expand_vectorEv(ptr noundef nonnull align 8 dereferenceable(8) %m_roots)
  %.pre.i = load ptr, ptr %m_roots, align 8
  %arrayidx8.phi.trans.insert.i = getelementptr inbounds i8, ptr %.pre.i, i64 -4
  %.pre1.i = load i32, ptr %arrayidx8.phi.trans.insert.i, align 4
  br label %_ZN6vectorISt4pairIjN3sat7literalEELb0EjE9push_backEOS3_.exit

_ZN6vectorISt4pairIjN3sat7literalEELb0EjE9push_backEOS3_.exit: ; preds = %lor.lhs.false.i, %if.then.i11
  %7 = phi i32 [ %.pre1.i, %if.then.i11 ], [ %5, %lor.lhs.false.i ]
  %8 = phi ptr [ %.pre.i, %if.then.i11 ], [ %4, %lor.lhs.false.i ]
  %retval.sroa.2.0.insert.ext.i = zext i32 %r.coerce to i64
  %retval.sroa.2.0.insert.shift.i = shl nuw i64 %retval.sroa.2.0.insert.ext.i, 32
  %retval.sroa.0.0.insert.ext.i = zext i32 %v to i64
  %retval.sroa.0.0.insert.insert.i = or disjoint i64 %retval.sroa.2.0.insert.shift.i, %retval.sroa.0.0.insert.ext.i
  %idx.ext.i = zext i32 %7 to i64
  %add.ptr.i = getelementptr inbounds %"struct.std::pair", ptr %8, i64 %idx.ext.i
  store i64 %retval.sroa.0.0.insert.insert.i, ptr %add.ptr.i, align 4
  %9 = load ptr, ptr %m_roots, align 8
  %arrayidx10.i = getelementptr inbounds i8, ptr %9, i64 -4
  %10 = load i32, ptr %arrayidx10.i, align 4
  %inc.i = add i32 %10, 1
  store i32 %inc.i, ptr %arrayidx10.i, align 4
  ret void
}